(dp1
S'dataset'
p2
S'mm'
p3
sS'epochs'
p4
I200
sS'seed'
p5
I1
sS'init_weight'
p6
F0.10000000000000001
sS'dim_stochastic'
p7
I4
sS'expt_name'
p8
S'uid'
p9
sS'reg_value'
p10
F0.050000000000000003
sS'reloadFile'
p11
S'./NOSUCHFILE'
p12
sS'reg_spec'
p13
S'_'
sS'dim_hidden'
p14
I4
sS'lr'
p15
F0.001
sS'reg_type'
p16
S'l2'
p17
sS'init_scheme'
p18
S'uniform'
p19
sS'optimizer'
p20
S'adam'
p21
sS'data_type'
p22
S'real'
p23
sS'use_generative_prior'
p24
S'approx'
p25
sS'maxout_stride'
p26
I4
sS'batch_size'
p27
I1000
sS'savedir'
p28
S'./chkpt-ipython-sliding-new/'
p29
sS'forget_bias'
p30
F-5
sS'inference_model'
p31
S'R'
sS'emission_layers'
p32
I2
sS'savefreq'
p33
I10
sS'rnn_cell'
p34
S'lstm'
p35
sS'rnn_size'
p36
I64
sS'paramFile'
p37
g12
sS'nonlinearity'
p38
S'relu'
p39
sS'dim_observations'
p40
I1
sS'rnn_dropout'
p41
F0.10000000000000001
sS'transition_layers'
p42
I2
sS'anneal_rate'
p43
F2
sS'debug'
p44
I00
sS'validate_only'
p45
I00
sS'transition_type'
p46
S'mlp'
p47
sS'unique_id'
p48
S'DMM_lr-0_001-dh-4-ds-4-nl-relu-bs-1000-ep-200-rs-64-rd-0_1-infm-R-tl-2-el-2-ar-2_0-use_p-approx-rc-lstm-uid'
p49
sS'leaky_param'
p50
F0
s.